target datalayout = "e-m:e-p270:32:32-p271:32:32-p272:64:64-i64:64-i128:128-f80:128-n8:16:32:64-S128"
target triple = "x86_64-pc-linux-gnu"

@the_repository = external global ptr, align 8
@.str = private unnamed_addr constant [13 x i8] c"cache-tree.c\00", align 1
@.str.1 = private unnamed_addr constant [11 x i8] c"cache_tree\00", align 1
@.str.6 = private unnamed_addr constant [5 x i8] c"read\00", align 1

; Function Attrs: nounwind uwtable
define dso_local ptr @cache_tree_read(ptr noundef %0, i64 noundef %1) #0 {
  %3 = alloca ptr, align 8
  %4 = alloca ptr, align 8
  %5 = alloca i64, align 8
  %6 = alloca ptr, align 8
  %7 = alloca i32, align 4
  store ptr %0, ptr %4, align 8, !tbaa !23
  store i64 %1, ptr %5, align 8, !tbaa !28
  call void @llvm.lifetime.start.p0(i64 8, ptr %6) #10
  %8 = load ptr, ptr %4, align 8, !tbaa !23
  %9 = getelementptr inbounds i8, ptr %8, i64 0
  %10 = load i8, ptr %9, align 1, !tbaa !47
  %11 = icmp ne i8 %10, 0
  br i1 %11, label %12, label %13

12:                                               ; preds = %2
  store ptr null, ptr %3, align 8
  store i32 1, ptr %7, align 4
  br label %18

13:                                               ; preds = %2
  %14 = load ptr, ptr @the_repository, align 8, !tbaa !48
  call void (ptr, i32, ptr, ptr, ptr, ...) @trace2_region_enter_fl(ptr noundef @.str, i32 noundef 638, ptr noundef @.str.1, ptr noundef @.str.6, ptr noundef %14)
  %15 = call ptr @read_one(ptr noundef %4, ptr noundef %5)
  store ptr %15, ptr %6, align 8, !tbaa !4
  %16 = load ptr, ptr @the_repository, align 8, !tbaa !48
  call void (ptr, i32, ptr, ptr, ptr, ...) @trace2_region_leave_fl(ptr noundef @.str, i32 noundef 640, ptr noundef @.str.1, ptr noundef @.str.6, ptr noundef %16)
  %17 = load ptr, ptr %6, align 8, !tbaa !4
  store ptr %17, ptr %3, align 8
  store i32 1, ptr %7, align 4
  br label %18

18:                                               ; preds = %13, %12
  call void @llvm.lifetime.end.p0(i64 8, ptr %6) #10
  %19 = load ptr, ptr %3, align 8
  ret ptr %19
}