; Function Attrs: nounwind uwtable
define dso_local noundef ptr @cache_tree_read(ptr noundef %0, i64 noundef %1) local_unnamed_addr #0 {
  %3 = alloca ptr, align 8
  %4 = alloca i64, align 8
  store ptr %0, ptr %3, align 8, !tbaa !81
  store i64 %1, ptr %4, align 8, !tbaa !82
  %5 = load i8, ptr %0, align 1, !tbaa !38
  %.not = icmp eq i8 %5, 0
  br i1 %.not, label %6, label %10

6:                                                ; preds = %2
  %7 = load ptr, ptr @the_repository, align 8, !tbaa !40
  tail call void (ptr, i32, ptr, ptr, ptr, ...) @trace2_region_enter_fl(ptr noundef nonnull @.str, i32 noundef 638, ptr noundef nonnull @.str.1, ptr noundef nonnull @.str.6, ptr noundef %7) #18
  %8 = call fastcc ptr @read_one(ptr noundef %3, ptr noundef %4)
  %9 = load ptr, ptr @the_repository, align 8, !tbaa !40
  tail call void (ptr, i32, ptr, ptr, ptr, ...) @trace2_region_leave_fl(ptr noundef nonnull @.str, i32 noundef 640, ptr noundef nonnull @.str.1, ptr noundef nonnull @.str.6, ptr noundef %9) #18
  br label %10

10:                                               ; preds = %2, %6
  %.0 = phi ptr [ %8, %6 ], [ null, %2 ]
  ret ptr %.0
}